; Function Attrs: nounwind uwtable
define internal fastcc void @Wayland_FreeCursorThemes(ptr noundef captures(none) %0) unnamed_addr #0 {
  %2 = getelementptr inbounds nuw i8, ptr %0, i64 56
  %3 = load i32, ptr %2, align 8
  %4 = icmp sgt i32 %3, 0
  br i1 %4, label %.lr.ph, label %._crit_edge

.lr.ph:                                           ; preds = %1
  %5 = getelementptr inbounds nuw i8, ptr %0, i64 48
  br label %8

._crit_edge:                                      ; preds = %8, %1
  store i32 0, ptr %2, align 8
  %6 = getelementptr inbounds nuw i8, ptr %0, i64 48
  %7 = load ptr, ptr %6, align 8
  tail call void @SDL_free_REAL(ptr noundef %7) #6
  store ptr null, ptr %6, align 8
  ret void

8:                                                ; preds = %.lr.ph, %8
  %indvars.iv = phi i64 [ 0, %.lr.ph ], [ %indvars.iv.next, %8 ]
  %9 = load ptr, ptr @WAYLAND_wl_cursor_theme_destroy, align 8
  %10 = load ptr, ptr %5, align 8
  %11 = getelementptr inbounds nuw %struct.SDL_WaylandCursorTheme, ptr %10, i64 %indvars.iv
  %12 = load ptr, ptr %11, align 8
  tail call void %9(ptr noundef %12) #6
  %indvars.iv.next = add nuw nsw i64 %indvars.iv, 1
  %13 = load i32, ptr %2, align 8
  %14 = sext i32 %13 to i64
  %15 = icmp slt i64 %indvars.iv.next, %14
  br i1 %15, label %8, label %._crit_edge, !llvm.loop !14
}